target datalayout = "e-m:e-p270:32:32-p271:32:32-p272:64:64-i64:64-i128:128-f80:128-n8:16:32:64-S128"
target triple = "x86_64-pc-linux-gnu"

%"class.icu_77::UnicodeString" = type { %"class.icu_77::Replaceable", %"union.icu_77::UnicodeString::StackBufferOrFields" }
%"class.icu_77::Replaceable" = type { %"class.icu_77::UObject" }
%"class.icu_77::UObject" = type { ptr }
%"union.icu_77::UnicodeString::StackBufferOrFields" = type { %struct.anon.0, [32 x i8] }
%struct.anon.0 = type { i16, i32, i32, ptr }
%"class.icu_77::VTimeZone" = type { %"class.icu_77::BasicTimeZone", ptr, ptr, %"class.icu_77::UnicodeString", double, %"class.icu_77::UnicodeString", %"class.icu_77::UnicodeString" }
%"class.icu_77::BasicTimeZone" = type { %"class.icu_77::TimeZone" }
%"class.icu_77::TimeZone" = type { %"class.icu_77::UObject", %"class.icu_77::UnicodeString" }

@.str = private unnamed_addr constant [11 x i8] c"zoneinfo64\00", align 1
@.str.1 = private unnamed_addr constant [10 x i8] c"TZVersion\00", align 1
@_ZN6icu_779VTimeZoneC1Ev = unnamed_addr alias void (ptr), ptr @_ZN6icu_779VTimeZoneC2Ev

; Function Attrs: inlinehint mustprogress nounwind uwtable
define linkonce_odr noundef i32 @_ZNK6icu_7713UnicodeString14getShortLengthEv(ptr noundef nonnull align 8 dereferenceable(64) %0) #3 comdat align 2 {
  %2 = alloca ptr, align 8
  store ptr %0, ptr %2, align 8, !tbaa !8
  %3 = load ptr, ptr %2, align 8
  %4 = getelementptr inbounds nuw %"class.icu_77::UnicodeString", ptr %3, i32 0, i32 1
  %5 = getelementptr inbounds nuw %struct.anon.0, ptr %4, i32 0, i32 0
  %6 = load i16, ptr %5, align 8, !tbaa !28
  %7 = sext i16 %6 to i32
  %8 = ashr i32 %7, 5
  ret i32 %8
}

; Function Attrs: inlinehint mustprogress nounwind uwtable
define linkonce_odr noundef signext i8 @_ZNK6icu_7713UnicodeString14hasShortLengthEv(ptr noundef nonnull align 8 dereferenceable(64) %0) #3 comdat align 2 {
  %2 = alloca ptr, align 8
  store ptr %0, ptr %2, align 8, !tbaa !8
  %3 = load ptr, ptr %2, align 8
  %4 = getelementptr inbounds nuw %"class.icu_77::UnicodeString", ptr %3, i32 0, i32 1
  %5 = getelementptr inbounds nuw %struct.anon.0, ptr %4, i32 0, i32 0
  %6 = load i16, ptr %5, align 8, !tbaa !28
  %7 = sext i16 %6 to i32
  %8 = icmp sge i32 %7, 0
  %9 = zext i1 %8 to i8
  ret i8 %9
}

; Function Attrs: inlinehint mustprogress uwtable
define linkonce_odr noundef i32 @_ZNK6icu_7713UnicodeString6lengthEv(ptr noundef nonnull align 8 dereferenceable(64) %0) #2 comdat align 2 {
  %2 = alloca ptr, align 8
  store ptr %0, ptr %2, align 8, !tbaa !8
  %3 = load ptr, ptr %2, align 8
  %4 = call noundef signext i8 @_ZNK6icu_7713UnicodeString14hasShortLengthEv(ptr noundef nonnull align 8 dereferenceable(64) %3)
  %5 = icmp ne i8 %4, 0
  br i1 %5, label %6, label %8

6:                                                ; preds = %1
  %7 = call noundef i32 @_ZNK6icu_7713UnicodeString14getShortLengthEv(ptr noundef nonnull align 8 dereferenceable(64) %3)
  br label %12

8:                                                ; preds = %1
  %9 = getelementptr inbounds nuw %"class.icu_77::UnicodeString", ptr %3, i32 0, i32 1
  %10 = getelementptr inbounds nuw %struct.anon.0, ptr %9, i32 0, i32 1
  %11 = load i32, ptr %10, align 4, !tbaa !28
  br label %12

12:                                               ; preds = %8, %6
  %13 = phi i32 [ %7, %6 ], [ %11, %8 ]
  ret i32 %13
}

; Function Attrs: inlinehint mustprogress uwtable
define linkonce_odr noundef nonnull align 8 dereferenceable(64) ptr @_ZN6icu_7713UnicodeString5setToEPKDsi(ptr noundef nonnull align 8 dereferenceable(64) %0, ptr noundef %1, i32 noundef %2) #2 comdat align 2 {
  %4 = alloca ptr, align 8
  %5 = alloca ptr, align 8
  %6 = alloca i32, align 4
  store ptr %0, ptr %4, align 8, !tbaa !8
  store ptr %1, ptr %5, align 8, !tbaa !14
  store i32 %2, ptr %6, align 4, !tbaa !18
  %7 = load ptr, ptr %4, align 8
  call void @_ZN6icu_7713UnicodeString7unBogusEv(ptr noundef nonnull align 8 dereferenceable(64) %7)
  %8 = call noundef i32 @_ZNK6icu_7713UnicodeString6lengthEv(ptr noundef nonnull align 8 dereferenceable(64) %7)
  %9 = load ptr, ptr %5, align 8, !tbaa !14
  %10 = load i32, ptr %6, align 4, !tbaa !18
  %11 = call noundef nonnull align 8 dereferenceable(64) ptr @_ZN6icu_7713UnicodeString9doReplaceEiiPKDsii(ptr noundef nonnull align 8 dereferenceable(64) %7, i32 noundef 0, i32 noundef %8, ptr noundef %9, i32 noundef 0, i32 noundef %10)
  ret ptr %11
}

; Function Attrs: inlinehint mustprogress nounwind uwtable
define internal noundef signext i8 @_ZL9U_SUCCESS10UErrorCode(i32 noundef %0) #3 {
  %2 = alloca i32, align 4
  store i32 %0, ptr %2, align 4, !tbaa !45
  %3 = load i32, ptr %2, align 4, !tbaa !45
  %4 = icmp sle i32 %3, 0
  %5 = zext i1 %4 to i8
  ret i8 %5
}

; Function Attrs: inlinehint mustprogress uwtable
define linkonce_odr noundef nonnull align 8 dereferenceable(64) ptr @_ZNK6icu_778TimeZone5getIDERNS_13UnicodeStringE(ptr noundef nonnull align 8 dereferenceable(72) %0, ptr noundef nonnull align 8 dereferenceable(64) %1) #2 comdat align 2 {
  %3 = alloca ptr, align 8
  %4 = alloca ptr, align 8
  store ptr %0, ptr %3, align 8, !tbaa !68
  store ptr %1, ptr %4, align 8, !tbaa !8
  %5 = load ptr, ptr %3, align 8
  %6 = getelementptr inbounds nuw %"class.icu_77::TimeZone", ptr %5, i32 0, i32 1
  %7 = load ptr, ptr %4, align 8, !tbaa !8
  %8 = call noundef nonnull align 8 dereferenceable(64) ptr @_ZN6icu_7713UnicodeStringaSERKS0_(ptr noundef nonnull align 8 dereferenceable(64) %7, ptr noundef nonnull align 8 dereferenceable(64) %6)
  %9 = load ptr, ptr %4, align 8, !tbaa !8
  ret ptr %9
}

; Function Attrs: inlinehint mustprogress nounwind uwtable
define internal noundef signext i8 @_ZL9U_FAILURE10UErrorCode(i32 noundef %0) #3 {
  %2 = alloca i32, align 4
  store i32 %0, ptr %2, align 4, !tbaa !45
  %3 = load i32, ptr %2, align 4, !tbaa !45
  %4 = icmp sgt i32 %3, 0
  %5 = zext i1 %4 to i8
  ret i8 %5
}

; Function Attrs: mustprogress uwtable
define noundef ptr @_ZN6icu_779VTimeZone32createVTimeZoneFromBasicTimeZoneERKNS_13BasicTimeZoneER10UErrorCode(ptr noundef nonnull align 8 dereferenceable(72) %0, ptr noundef nonnull align 4 dereferenceable(4) %1) #1 align 2 personality ptr @__gxx_personality_v0 {
  %3 = alloca ptr, align 8
  %4 = alloca ptr, align 8
  %5 = alloca ptr, align 8
  %6 = alloca ptr, align 8
  %7 = alloca ptr, align 8
  %8 = alloca i1, align 1
  %9 = alloca ptr, align 8
  %10 = alloca i32, align 4
  %11 = alloca i32, align 4
  %12 = alloca ptr, align 8
  %13 = alloca ptr, align 8
  %14 = alloca i32, align 4
  store ptr %0, ptr %4, align 8, !tbaa !61
  store ptr %1, ptr %5, align 8, !tbaa !55
  %15 = load ptr, ptr %5, align 8, !tbaa !55
  %16 = load i32, ptr %15, align 4, !tbaa !45
  %17 = call noundef signext i8 @_ZL9U_FAILURE10UErrorCode(i32 noundef %16)
  %18 = icmp ne i8 %17, 0
  br i1 %18, label %19, label %20

19:                                               ; preds = %2
  store ptr null, ptr %3, align 8
  br label %86

20:                                               ; preds = %2
  call void @llvm.lifetime.start.p0(i64 8, ptr %6) #11
  %21 = call noundef ptr @_ZN6icu_777UMemorynwEm(i64 noundef 288) #11
  %22 = icmp eq ptr %21, null
  store i1 false, ptr %8, align 1
  br i1 %22, label %25, label %23

23:                                               ; preds = %20
  store ptr %21, ptr %7, align 8
  store i1 true, ptr %8, align 1
  invoke void @_ZN6icu_779VTimeZoneC1Ev(ptr noundef nonnull align 8 dereferenceable(288) %21)
          to label %24 unwind label %31

24:                                               ; preds = %23
  br label %25

25:                                               ; preds = %24, %20
  %26 = phi ptr [ %21, %24 ], [ null, %20 ]
  store ptr %26, ptr %6, align 8, !tbaa !29
  %27 = load ptr, ptr %6, align 8, !tbaa !29
  %28 = icmp eq ptr %27, null
  br i1 %28, label %29, label %39

29:                                               ; preds = %25
  %30 = load ptr, ptr %5, align 8, !tbaa !55
  store i32 7, ptr %30, align 4, !tbaa !45
  store ptr null, ptr %3, align 8
  store i32 1, ptr %11, align 4
  br label %85

31:                                               ; preds = %23
  %32 = landingpad { ptr, i32 }
          cleanup
  %33 = extractvalue { ptr, i32 } %32, 0
  store ptr %33, ptr %9, align 8
  %34 = extractvalue { ptr, i32 } %32, 1
  store i32 %34, ptr %10, align 4
  %35 = load i1, ptr %8, align 1
  br i1 %35, label %36, label %38

36:                                               ; preds = %31
  %37 = load ptr, ptr %7, align 8
  call void @_ZN6icu_777UMemorydlEPv(ptr noundef %37) #11
  br label %38

38:                                               ; preds = %36, %31
  call void @llvm.lifetime.end.p0(i64 8, ptr %6) #11
  br label %88

39:                                               ; preds = %25
  %40 = load ptr, ptr %4, align 8, !tbaa !61
  %41 = load ptr, ptr %40, align 8, !tbaa !31
  %42 = getelementptr inbounds ptr, ptr %41, i64 12
  %43 = load ptr, ptr %42, align 8
  %44 = call noundef ptr %43(ptr noundef nonnull align 8 dereferenceable(72) %40)
  %45 = load ptr, ptr %6, align 8, !tbaa !29
  %46 = getelementptr inbounds nuw %"class.icu_77::VTimeZone", ptr %45, i32 0, i32 1
  store ptr %44, ptr %46, align 8, !tbaa !33
  %47 = load ptr, ptr %6, align 8, !tbaa !29
  %48 = getelementptr inbounds nuw %"class.icu_77::VTimeZone", ptr %47, i32 0, i32 1
  %49 = load ptr, ptr %48, align 8, !tbaa !33
  %50 = icmp eq ptr %49, null
  br i1 %50, label %51, label %60

51:                                               ; preds = %39
  %52 = load ptr, ptr %5, align 8, !tbaa !55
  store i32 7, ptr %52, align 4, !tbaa !45
  %53 = load ptr, ptr %6, align 8, !tbaa !29
  %54 = icmp eq ptr %53, null
  br i1 %54, label %59, label %55

55:                                               ; preds = %51
  %56 = load ptr, ptr %53, align 8, !tbaa !31
  %57 = getelementptr inbounds ptr, ptr %56, i64 1
  %58 = load ptr, ptr %57, align 8
  call void %58(ptr noundef nonnull align 8 dereferenceable(288) %53) #11
  br label %59

59:                                               ; preds = %55, %51
  store ptr null, ptr %3, align 8
  store i32 1, ptr %11, align 4
  br label %85

60:                                               ; preds = %39
  %61 = load ptr, ptr %6, align 8, !tbaa !29
  %62 = getelementptr inbounds nuw %"class.icu_77::VTimeZone", ptr %61, i32 0, i32 1
  %63 = load ptr, ptr %62, align 8, !tbaa !33
  %64 = load ptr, ptr %6, align 8, !tbaa !29
  %65 = getelementptr inbounds nuw %"class.icu_77::VTimeZone", ptr %64, i32 0, i32 5
  %66 = call noundef nonnull align 8 dereferenceable(64) ptr @_ZNK6icu_778TimeZone5getIDERNS_13UnicodeStringE(ptr noundef nonnull align 8 dereferenceable(72) %63, ptr noundef nonnull align 8 dereferenceable(64) %65)
  call void @llvm.lifetime.start.p0(i64 8, ptr %12) #11
  store ptr null, ptr %12, align 8, !tbaa !72
  call void @llvm.lifetime.start.p0(i64 8, ptr %13) #11
  store ptr null, ptr %13, align 8, !tbaa !14
  call void @llvm.lifetime.start.p0(i64 4, ptr %14) #11
  store i32 0, ptr %14, align 4, !tbaa !18
  %67 = load ptr, ptr %5, align 8, !tbaa !55
  %68 = call ptr @ures_openDirect_77(ptr noundef null, ptr noundef @.str, ptr noundef %67)
  store ptr %68, ptr %12, align 8, !tbaa !72
  %69 = load ptr, ptr %12, align 8, !tbaa !72
  %70 = load ptr, ptr %5, align 8, !tbaa !55
  %71 = call ptr @ures_getStringByKey_77(ptr noundef %69, ptr noundef @.str.1, ptr noundef %14, ptr noundef %70)
  store ptr %71, ptr %13, align 8, !tbaa !14
  %72 = load ptr, ptr %5, align 8, !tbaa !55
  %73 = load i32, ptr %72, align 4, !tbaa !45
  %74 = call noundef signext i8 @_ZL9U_SUCCESS10UErrorCode(i32 noundef %73)
  %75 = icmp ne i8 %74, 0
  br i1 %75, label %76, label %82

76:                                               ; preds = %60
  %77 = load ptr, ptr %6, align 8, !tbaa !29
  %78 = getelementptr inbounds nuw %"class.icu_77::VTimeZone", ptr %77, i32 0, i32 6
  %79 = load ptr, ptr %13, align 8, !tbaa !14
  %80 = load i32, ptr %14, align 4, !tbaa !18
  %81 = call noundef nonnull align 8 dereferenceable(64) ptr @_ZN6icu_7713UnicodeString5setToEPKDsi(ptr noundef nonnull align 8 dereferenceable(64) %78, ptr noundef %79, i32 noundef %80)
  br label %82

82:                                               ; preds = %76, %60
  %83 = load ptr, ptr %12, align 8, !tbaa !72
  call void @ures_close_77(ptr noundef %83)
  %84 = load ptr, ptr %6, align 8, !tbaa !29
  store ptr %84, ptr %3, align 8
  store i32 1, ptr %11, align 4
  call void @llvm.lifetime.end.p0(i64 4, ptr %14) #11
  call void @llvm.lifetime.end.p0(i64 8, ptr %13) #11
  call void @llvm.lifetime.end.p0(i64 8, ptr %12) #11
  br label %85

85:                                               ; preds = %82, %59, %29
  call void @llvm.lifetime.end.p0(i64 8, ptr %6) #11
  br label %86

86:                                               ; preds = %85, %19
  %87 = load ptr, ptr %3, align 8
  ret ptr %87

88:                                               ; preds = %38
  %89 = load ptr, ptr %9, align 8
  %90 = load i32, ptr %10, align 4
  %91 = insertvalue { ptr, i32 } poison, ptr %89, 0
  %92 = insertvalue { ptr, i32 } %91, i32 %90, 1
  resume { ptr, i32 } %92
}