; Function Attrs: mustprogress uwtable
define noundef ptr @_ZN6icu_779VTimeZone32createVTimeZoneFromBasicTimeZoneERKNS_13BasicTimeZoneER10UErrorCode(ptr noundef nonnull align 8 dereferenceable(72) %0, ptr noundef nonnull align 4 dereferenceable(4) %1) local_unnamed_addr #2 align 2 personality ptr @__gxx_personality_v0 {
  %3 = alloca i32, align 4
  %4 = load i32, ptr %1, align 4, !tbaa !31
  %5 = icmp slt i32 %4, 1
  br i1 %5, label %6, label %45

6:                                                ; preds = %2
  %7 = tail call noundef ptr @_ZN6icu_777UMemorynwEm(i64 noundef 288) #16
  %8 = icmp eq ptr %7, null
  br i1 %8, label %10, label %9

9:                                                ; preds = %6
  invoke void @_ZN6icu_779VTimeZoneC1Ev(ptr noundef nonnull align 8 dereferenceable(288) %7)
          to label %13 unwind label %11

10:                                               ; preds = %6
  store i32 7, ptr %1, align 4, !tbaa !31
  br label %45

11:                                               ; preds = %9
  %12 = landingpad { ptr, i32 }
          cleanup
  tail call void @_ZN6icu_777UMemorydlEPv(ptr noundef nonnull %7) #16
  resume { ptr, i32 } %12

13:                                               ; preds = %9
  %14 = load ptr, ptr %0, align 8, !tbaa !17
  %15 = getelementptr inbounds nuw i8, ptr %14, i64 96
  %16 = load ptr, ptr %15, align 8
  %17 = tail call noundef ptr %16(ptr noundef nonnull align 8 dereferenceable(72) %0)
  %18 = getelementptr inbounds nuw i8, ptr %7, i64 72
  store ptr %17, ptr %18, align 8, !tbaa !29
  %19 = icmp eq ptr %17, null
  br i1 %19, label %20, label %24

20:                                               ; preds = %13
  store i32 7, ptr %1, align 4, !tbaa !31
  %21 = load ptr, ptr %7, align 8, !tbaa !17
  %22 = getelementptr inbounds nuw i8, ptr %21, i64 8
  %23 = load ptr, ptr %22, align 8
  tail call void %23(ptr noundef nonnull align 8 dereferenceable(288) %7) #16
  br label %45

24:                                               ; preds = %13
  %25 = getelementptr inbounds nuw i8, ptr %7, i64 160
  %26 = getelementptr inbounds nuw i8, ptr %17, i64 8
  %27 = tail call noundef nonnull align 8 dereferenceable(64) ptr @_ZN6icu_7713UnicodeStringaSERKS0_(ptr noundef nonnull align 8 dereferenceable(64) %25, ptr noundef nonnull align 8 dereferenceable(64) %26)
  call void @llvm.lifetime.start.p0(i64 4, ptr nonnull %3) #16
  store i32 0, ptr %3, align 4, !tbaa !42
  %28 = tail call ptr @ures_openDirect_77(ptr noundef null, ptr noundef nonnull @.str, ptr noundef nonnull %1)
  %29 = call ptr @ures_getStringByKey_77(ptr noundef %28, ptr noundef nonnull @.str.1, ptr noundef nonnull %3, ptr noundef nonnull %1)
  %30 = load i32, ptr %1, align 4, !tbaa !31
  %31 = icmp sgt i32 %30, 0
  br i1 %31, label %44, label %32

32:                                               ; preds = %24
  %33 = getelementptr inbounds nuw i8, ptr %7, i64 224
  %34 = load i32, ptr %3, align 4, !tbaa !42
  call void @_ZN6icu_7713UnicodeString7unBogusEv(ptr noundef nonnull align 8 dereferenceable(64) %33)
  %35 = getelementptr inbounds nuw i8, ptr %7, i64 232
  %36 = load i16, ptr %35, align 8, !tbaa !9
  %37 = icmp slt i16 %36, 0
  %38 = ashr i16 %36, 5
  %39 = sext i16 %38 to i32
  %40 = getelementptr inbounds nuw i8, ptr %7, i64 236
  %41 = load i32, ptr %40, align 4
  %42 = select i1 %37, i32 %41, i32 %39
  %43 = call noundef nonnull align 8 dereferenceable(64) ptr @_ZN6icu_7713UnicodeString9doReplaceEiiPKDsii(ptr noundef nonnull align 8 dereferenceable(64) %33, i32 noundef 0, i32 noundef %42, ptr noundef %29, i32 noundef 0, i32 noundef %34)
  br label %44

44:                                               ; preds = %32, %24
  call void @ures_close_77(ptr noundef %28)
  call void @llvm.lifetime.end.p0(i64 4, ptr nonnull %3) #16
  br label %45

45:                                               ; preds = %10, %20, %44, %2
  %.0 = phi ptr [ null, %2 ], [ null, %10 ], [ null, %20 ], [ %7, %44 ]
  ret ptr %.0
}